Certificate Revocation List (CRL):
        Version 1 (0x0)
        Signature Algorithm: sha1WithRSAEncryption
        Issuer: /C=US/O=Equifax/OU=Equifax Secure Certificate Authority
        Last Update: Feb  4 03:03:00 2014 GMT
        Next Update: Feb 14 03:03:00 2014 GMT
Revoked Certificates:
    Serial Number: 0CB326
        Revocation Date: Jun 27 17:10:36 2012 GMT
    Serial Number: 0DBC17
        Revocation Date: Jun 27 17:10:58 2012 GMT
    Serial Number: 0C6060
        Revocation Date: Jun 27 17:10:34 2012 GMT
    Serial Number: 031E33
        Revocation Date: May 15 13:06:11 2002 GMT
    Serial Number: 0CDBED
        Revocation Date: Jun 27 17:10:39 2012 GMT
    Serial Number: 09E7A2
        Revocation Date: Jun 27 17:10:02 2012 GMT
    Serial Number: 0CCFAD
        Revocation Date: Jun 27 17:10:38 2012 GMT
    Serial Number: 0C69FE
        Revocation Date: Jun 27 17:10:35 2012 GMT
    Serial Number: 0F9416
        Revocation Date: Mar  1 13:45:31 2010 GMT
    Serial Number: 0C1D8B
        Revocation Date: Jun 23 14:17:52 2010 GMT
    Serial Number: 0968B6
        Revocation Date: Jun 27 17:09:50 2012 GMT
    Serial Number: 0B89D6
        Revocation Date: Jun 27 17:10:26 2012 GMT
    Serial Number: 0B808A
        Revocation Date: Jun 27 17:10:25 2012 GMT
    Serial Number: 0AB353
        Revocation Date: Jun 27 17:10:16 2012 GMT
    Serial Number: 0AC3A5
        Revocation Date: Jun 27 17:10:16 2012 GMT
    Serial Number: 0CE8DD
        Revocation Date: Jun 27 17:10:50 2012 GMT
    Serial Number: 0953E3
        Revocation Date: Jun 27 17:09:49 2012 GMT
    Serial Number: 0A48CD
        Revocation Date: Jun 27 17:10:11 2012 GMT
    Serial Number: 0B948F
        Revocation Date: Jun 27 17:10:26 2012 GMT
    Serial Number: 0C9F5F
        Revocation Date: Jun 27 17:10:36 2012 GMT
    Serial Number: 032585
        Revocation Date: May 14 18:11:57 2002 GMT
    Serial Number: 0DC0CB
        Revocation Date: Jun 27 17:10:58 2012 GMT
    Serial Number: 0C7DEE
        Revocation Date: Jun 27 17:09:11 2012 GMT
    Serial Number: 0C9138
        Revocation Date: Jun 27 17:10:35 2012 GMT
    Serial Number: 0B51B2
        Revocation Date: Jun 27 17:10:23 2012 GMT
    Serial Number: 0BFD22
        Revocation Date: Jun 27 17:10:30 2012 GMT
    Serial Number: 0A8CF9
        Revocation Date: Jun 27 17:10:14 2012 GMT
    Serial Number: 139CAB
        Revocation Date: Jul 29 16:44:39 2010 GMT
    Serial Number: 1578C8
        Revocation Date: Sep 24 20:43:42 2013 GMT
    Serial Number: 0D0844
        Revocation Date: Jun 27 17:10:51 2012 GMT
    Serial Number: 0C164E
        Revocation Date: Jun 23 14:17:26 2010 GMT
    Serial Number: 0CADB3
        Revocation Date: Jun 27 17:10:36 2012 GMT
    Serial Number: 0D3701
        Revocation Date: Jun 27 17:10:52 2012 GMT
    Serial Number: 0B7A6F
        Revocation Date: Jun 27 17:10:25 2012 GMT
    Serial Number: 0C2F28
        Revocation Date: Jun 27 17:10:32 2012 GMT
    Serial Number: 0AD784
        Revocation Date: Apr 17 16:39:29 2009 GMT
    Serial Number: 0CD4A8
        Revocation Date: Jun 27 17:10:39 2012 GMT
    Serial Number: 0AEA12
        Revocation Date: Jun 27 17:10:17 2012 GMT
    Serial Number: 139CA1
        Revocation Date: Jul 29 16:47:32 2010 GMT
    Serial Number: 0C2AB1
        Revocation Date: Jun 27 17:10:32 2012 GMT
    Serial Number: 0C0A09
        Revocation Date: Jun 27 17:10:31 2012 GMT
    Serial Number: 0AE185
        Revocation Date: Jun 27 17:10:17 2012 GMT
    Serial Number: 0BBCD5
        Revocation Date: Jun 27 17:10:28 2012 GMT
    Serial Number: 0C0000
        Revocation Date: Jun 27 17:10:31 2012 GMT
    Serial Number: 0BE606
        Revocation Date: Jun 27 17:10:30 2012 GMT
    Serial Number: 0BBCD2
        Revocation Date: Jun 27 17:10:28 2012 GMT
    Serial Number: 1577F8
        Revocation Date: Mar 22 01:15:10 2013 GMT
    Serial Number: 0BBCD0
        Revocation Date: Jun 27 17:10:29 2012 GMT
    Serial Number: 0C7E85
        Revocation Date: Jun 27 17:10:35 2012 GMT
    Serial Number: 0C6841
        Revocation Date: Jun 27 17:10:34 2012 GMT
    Serial Number: 09E7BD
        Revocation Date: Jun 27 17:10:03 2012 GMT
    Serial Number: 0CB924
        Revocation Date: Jun 27 17:10:37 2012 GMT
    Serial Number: 0D783D
        Revocation Date: Jun 27 17:10:55 2012 GMT
    Serial Number: 0C6A70
        Revocation Date: Jun 27 17:10:34 2012 GMT
    Serial Number: 0D4266
        Revocation Date: Jun 27 17:10:53 2012 GMT
    Serial Number: 105BCB
        Revocation Date: Jul 30 21:31:20 2010 GMT
    Signature Algorithm: sha1WithRSAEncryption
        41:47:e9:58:50:af:8f:2a:5f:31:e2:8f:c9:eb:aa:01:96:41:
        07:ed:00:7a:c7:62:15:1f:42:f6:56:f0:87:bd:86:80:e7:a2:
        5b:88:bc:55:94:32:ca:af:f2:32:11:10:9b:63:88:37:92:69:
        54:a0:a2:11:43:23:5a:b2:af:c4:41:06:88:de:de:32:31:57:
        0f:24:68:61:2b:6f:ff:14:9d:c5:64:87:4b:e7:e3:58:4d:8b:
        20:c5:1e:33:8a:fb:48:ae:6d:73:e7:13:8c:bf:49:99:46:23:
        99:2f:0a:70:0b:b0:e0:7f:83:1d:1c:dc:6e:07:2f:5a:3c:43:
        54:52
-----BEGIN X509 CRL-----
MIIF6DCCBVEwDQYJKoZIhvcNAQEFBQAwTjELMAkGA1UEBhMCVVMxEDAOBgNVBAoT
B0VxdWlmYXgxLTArBgNVBAsTJEVxdWlmYXggU2VjdXJlIENlcnRpZmljYXRlIEF1
dGhvcml0eRcNMTQwMjA0MDMwMzAwWhcNMTQwMjE0MDMwMzAwWjCCBNAwFAIDDLMm
Fw0xMjA2MjcxNzEwMzZaMBQCAw28FxcNMTIwNjI3MTcxMDU4WjAUAgMMYGAXDTEy
MDYyNzE3MTAzNFowFAIDAx4zFw0wMjA1MTUxMzA2MTFaMBQCAwzb7RcNMTIwNjI3
MTcxMDM5WjAUAgMJ56IXDTEyMDYyNzE3MTAwMlowFAIDDM+tFw0xMjA2MjcxNzEw
MzhaMBQCAwxp/hcNMTIwNjI3MTcxMDM1WjAUAgMPlBYXDTEwMDMwMTEzNDUzMVow
FAIDDB2LFw0xMDA2MjMxNDE3NTJaMBQCAwlothcNMTIwNjI3MTcwOTUwWjAUAgML
idYXDTEyMDYyNzE3MTAyNlowFAIDC4CKFw0xMjA2MjcxNzEwMjVaMBQCAwqzUxcN
MTIwNjI3MTcxMDE2WjAUAgMKw6UXDTEyMDYyNzE3MTAxNlowFAIDDOjdFw0xMjA2
MjcxNzEwNTBaMBQCAwlT4xcNMTIwNjI3MTcwOTQ5WjAUAgMKSM0XDTEyMDYyNzE3
MTAxMVowFAIDC5SPFw0xMjA2MjcxNzEwMjZaMBQCAwyfXxcNMTIwNjI3MTcxMDM2
WjAUAgMDJYUXDTAyMDUxNDE4MTE1N1owFAIDDcDLFw0xMjA2MjcxNzEwNThaMBQC
Awx97hcNMTIwNjI3MTcwOTExWjAUAgMMkTgXDTEyMDYyNzE3MTAzNVowFAIDC1Gy
Fw0xMjA2MjcxNzEwMjNaMBQCAwv9IhcNMTIwNjI3MTcxMDMwWjAUAgMKjPkXDTEy
MDYyNzE3MTAxNFowFAIDE5yrFw0xMDA3MjkxNjQ0MzlaMBQCAxV4yBcNMTMwOTI0
MjA0MzQyWjAUAgMNCEQXDTEyMDYyNzE3MTA1MVowFAIDDBZOFw0xMDA2MjMxNDE3
MjZaMBQCAwytsxcNMTIwNjI3MTcxMDM2WjAUAgMNNwEXDTEyMDYyNzE3MTA1Mlow
FAIDC3pvFw0xMjA2MjcxNzEwMjVaMBQCAwwvKBcNMTIwNjI3MTcxMDMyWjAUAgMK
14QXDTA5MDQxNzE2MzkyOVowFAIDDNSoFw0xMjA2MjcxNzEwMzlaMBQCAwrqEhcN
MTIwNjI3MTcxMDE3WjAUAgMTnKEXDTEwMDcyOTE2NDczMlowFAIDDCqxFw0xMjA2
MjcxNzEwMzJaMBQCAwwKCRcNMTIwNjI3MTcxMDMxWjAUAgMK4YUXDTEyMDYyNzE3
MTAxN1owFAIDC7zVFw0xMjA2MjcxNzEwMjhaMBQCAwwAABcNMTIwNjI3MTcxMDMx
WjAUAgML5gYXDTEyMDYyNzE3MTAzMFowFAIDC7zSFw0xMjA2MjcxNzEwMjhaMBQC
AxV3+BcNMTMwMzIyMDExNTEwWjAUAgMLvNAXDTEyMDYyNzE3MTAyOVowFAIDDH6F
Fw0xMjA2MjcxNzEwMzVaMBQCAwxoQRcNMTIwNjI3MTcxMDM0WjAUAgMJ570XDTEy
MDYyNzE3MTAwM1owFAIDDLkkFw0xMjA2MjcxNzEwMzdaMBQCAw14PRcNMTIwNjI3
MTcxMDU1WjAUAgMManAXDTEyMDYyNzE3MTAzNFowFAIDDUJmFw0xMjA2MjcxNzEw
NTNaMBQCAxBbyxcNMTAwNzMwMjEzMTIwWjANBgkqhkiG9w0BAQUFAAOBgQBBR+lY
UK+PKl8x4o/J66oBlkEH7QB6x2IVH0L2VvCHvYaA56JbiLxVlDLKr/IyERCbY4g3
kmlUoKIRQyNasq/EQQaI3t4yMVcPJGhhK2//FJ3FZIdL5+NYTYsgxR4zivtIrm1z
5xOMv0mZRiOZLwpwC7Dgf4MdHNxuBy9aPENUUg==
-----END X509 CRL-----
